target datalayout = "e-m:e-p270:32:32-p271:32:32-p272:64:64-i64:64-i128:128-f80:128-n8:16:32:64-S128"
target triple = "x86_64-unknown-linux-gnu"

%"class.cvc5::internal::NodeTemplate.0" = type { ptr }
%"class.cvc5::internal::NodeTemplate" = type { ptr }
%"struct.cvc5::internal::theory::arith::linear::ConstraintRule" = type { ptr, i32, i64, ptr }
%"class.cvc5::internal::theory::arith::linear::Constraint" = type <{ i32, i32, %"class.cvc5::internal::DeltaRational", ptr, %"class.cvc5::internal::NodeTemplate", ptr, i8, [7 x i8], i64, %"class.cvc5::internal::NodeTemplate.0", i64, i8, [7 x i8], %"struct.std::_Rb_tree_iterator", i8, [7 x i8] }>
%"class.cvc5::internal::DeltaRational" = type { %"class.cvc5::internal::Rational", %"class.cvc5::internal::Rational" }
%"class.cvc5::internal::Rational" = type { %class.__gmp_expr }
%class.__gmp_expr = type { [1 x %struct.__mpq_struct] }
%struct.__mpq_struct = type { %struct.__mpz_struct, %struct.__mpz_struct }
%struct.__mpz_struct = type { i32, i32, ptr }
%"struct.std::_Rb_tree_iterator" = type { ptr }
%"struct.std::_Vector_base" = type { %"struct.std::_Vector_base<const cvc5::internal::theory::arith::linear::Constraint *, std::allocator<const cvc5::internal::theory::arith::linear::Constraint *>>::_Vector_impl" }
%"struct.std::_Vector_base<const cvc5::internal::theory::arith::linear::Constraint *, std::allocator<const cvc5::internal::theory::arith::linear::Constraint *>>::_Vector_impl" = type { %"struct.std::_Vector_base<const cvc5::internal::theory::arith::linear::Constraint *, std::allocator<const cvc5::internal::theory::arith::linear::Constraint *>>::_Vector_impl_data" }
%"struct.std::_Vector_base<const cvc5::internal::theory::arith::linear::Constraint *, std::allocator<const cvc5::internal::theory::arith::linear::Constraint *>>::_Vector_impl_data" = type { ptr, ptr, ptr }
%"struct.std::_Vector_base.7" = type { %"struct.std::_Vector_base<cvc5::internal::theory::arith::linear::Constraint *, std::allocator<cvc5::internal::theory::arith::linear::Constraint *>>::_Vector_impl" }
%"struct.std::_Vector_base<cvc5::internal::theory::arith::linear::Constraint *, std::allocator<cvc5::internal::theory::arith::linear::Constraint *>>::_Vector_impl" = type { %"struct.std::_Vector_base<cvc5::internal::theory::arith::linear::Constraint *, std::allocator<cvc5::internal::theory::arith::linear::Constraint *>>::_Vector_impl_data" }
%"struct.std::_Vector_base<cvc5::internal::theory::arith::linear::Constraint *, std::allocator<cvc5::internal::theory::arith::linear::Constraint *>>::_Vector_impl_data" = type { ptr, ptr, ptr }
%"class.cvc5::internal::theory::arith::linear::ConstraintDatabase" = type { %"class.cvc5::internal::EnvObj", %"class.std::vector.11", %"class.std::unordered_map", %"class.cvc5::context::CDQueue", %"class.cvc5::context::CDList", ptr, ptr, ptr, ptr, ptr, %"class.cvc5::internal::theory::arith::linear::RaiseConflict", %"class.cvc5::internal::Rational", %"class.cvc5::internal::Rational", %"class.cvc5::internal::DenseSet", %"class.cvc5::internal::theory::arith::linear::ConstraintDatabase::Statistics" }
%"class.cvc5::internal::EnvObj" = type { ptr, ptr }
%"class.std::vector.11" = type { %"struct.std::_Vector_base.12" }
%"struct.std::_Vector_base.12" = type { %"struct.std::_Vector_base<cvc5::internal::theory::arith::linear::PerVariableDatabase *, std::allocator<cvc5::internal::theory::arith::linear::PerVariableDatabase *>>::_Vector_impl" }
%"struct.std::_Vector_base<cvc5::internal::theory::arith::linear::PerVariableDatabase *, std::allocator<cvc5::internal::theory::arith::linear::PerVariableDatabase *>>::_Vector_impl" = type { %"struct.std::_Vector_base<cvc5::internal::theory::arith::linear::PerVariableDatabase *, std::allocator<cvc5::internal::theory::arith::linear::PerVariableDatabase *>>::_Vector_impl_data" }
%"struct.std::_Vector_base<cvc5::internal::theory::arith::linear::PerVariableDatabase *, std::allocator<cvc5::internal::theory::arith::linear::PerVariableDatabase *>>::_Vector_impl_data" = type { ptr, ptr, ptr }
%"class.std::unordered_map" = type { %"class.std::_Hashtable" }
%"class.std::_Hashtable" = type { ptr, i64, %"struct.std::__detail::_Hash_node_base", i64, %"struct.std::__detail::_Prime_rehash_policy", ptr }
%"struct.std::__detail::_Hash_node_base" = type { ptr }
%"struct.std::__detail::_Prime_rehash_policy" = type { float, i64 }
%"class.cvc5::context::CDQueue" = type { %"class.cvc5::context::CDList.base", i64, i64 }
%"class.cvc5::context::CDList.base" = type <{ %"class.cvc5::context::ContextObj", %"class.std::vector", i64, i8, %"class.cvc5::context::DefaultCleanUp" }>
%"class.cvc5::context::ContextObj" = type { ptr, ptr, ptr, ptr, ptr }
%"class.std::vector" = type { %"struct.std::_Vector_base" }
%"class.cvc5::context::DefaultCleanUp" = type { i8 }
%"class.cvc5::context::CDList" = type <{ %"class.cvc5::context::ContextObj", %"class.std::vector", i64, i8, %"class.cvc5::context::DefaultCleanUp", [6 x i8] }>
%"class.cvc5::internal::theory::arith::linear::RaiseConflict" = type { ptr }
%"class.cvc5::internal::DenseSet" = type { %"class.cvc5::internal::DenseMap" }
%"class.cvc5::internal::DenseMap" = type { %"class.std::vector.21", %"class.std::vector.21", %"class.std::vector.26" }
%"class.std::vector.21" = type { %"struct.std::_Vector_base.22" }
%"struct.std::_Vector_base.22" = type { %"struct.std::_Vector_base<unsigned int, std::allocator<unsigned int>>::_Vector_impl" }
%"struct.std::_Vector_base<unsigned int, std::allocator<unsigned int>>::_Vector_impl" = type { %"struct.std::_Vector_base<unsigned int, std::allocator<unsigned int>>::_Vector_impl_data" }
%"struct.std::_Vector_base<unsigned int, std::allocator<unsigned int>>::_Vector_impl_data" = type { ptr, ptr, ptr }
%"class.std::vector.26" = type { %"struct.std::_Bvector_base" }
%"struct.std::_Bvector_base" = type { %"struct.std::_Bvector_base<std::allocator<bool>>::_Bvector_impl" }
%"struct.std::_Bvector_base<std::allocator<bool>>::_Bvector_impl" = type { %"struct.std::_Bvector_base<std::allocator<bool>>::_Bvector_impl_data" }
%"struct.std::_Bvector_base<std::allocator<bool>>::_Bvector_impl_data" = type { %"struct.std::_Bit_iterator", %"struct.std::_Bit_iterator", ptr }
%"struct.std::_Bit_iterator" = type { %"struct.std::_Bit_iterator_base.base", [4 x i8] }
%"struct.std::_Bit_iterator_base.base" = type <{ ptr, i32 }>
%"class.cvc5::internal::theory::arith::linear::ConstraintDatabase::Statistics" = type { %"class.cvc5::internal::IntStat", %"class.cvc5::internal::IntStat" }
%"class.cvc5::internal::IntStat" = type { %"class.cvc5::internal::ValueStat" }
%"class.cvc5::internal::ValueStat" = type { ptr }
%"struct.cvc5::internal::theory::arith::linear::ConstraintDatabase::Watches" = type { %"class.cvc5::context::CDList.34", %"class.cvc5::context::CDList.41", %"class.cvc5::context::CDList.43", %"class.cvc5::context::CDList.45" }
%"class.cvc5::context::CDList.34" = type <{ %"class.cvc5::context::ContextObj", %"class.std::vector.35", i64, i8, %"class.cvc5::internal::theory::arith::linear::Constraint::ConstraintRuleCleanup", [6 x i8] }>
%"class.std::vector.35" = type { %"struct.std::_Vector_base.36" }
%"struct.std::_Vector_base.36" = type { %"struct.std::_Vector_base<cvc5::internal::theory::arith::linear::ConstraintRule, std::allocator<cvc5::internal::theory::arith::linear::ConstraintRule>>::_Vector_impl" }
%"struct.std::_Vector_base<cvc5::internal::theory::arith::linear::ConstraintRule, std::allocator<cvc5::internal::theory::arith::linear::ConstraintRule>>::_Vector_impl" = type { %"struct.std::_Vector_base<cvc5::internal::theory::arith::linear::ConstraintRule, std::allocator<cvc5::internal::theory::arith::linear::ConstraintRule>>::_Vector_impl_data" }
%"struct.std::_Vector_base<cvc5::internal::theory::arith::linear::ConstraintRule, std::allocator<cvc5::internal::theory::arith::linear::ConstraintRule>>::_Vector_impl_data" = type { ptr, ptr, ptr }
%"class.cvc5::internal::theory::arith::linear::Constraint::ConstraintRuleCleanup" = type { i8 }
%"class.cvc5::context::CDList.41" = type <{ %"class.cvc5::context::ContextObj", %"class.std::vector.6", i64, i8, %"class.cvc5::internal::theory::arith::linear::Constraint::CanBePropagatedCleanup", [6 x i8] }>
%"class.std::vector.6" = type { %"struct.std::_Vector_base.7" }
%"class.cvc5::internal::theory::arith::linear::Constraint::CanBePropagatedCleanup" = type { i8 }
%"class.cvc5::context::CDList.43" = type <{ %"class.cvc5::context::ContextObj", %"class.std::vector.6", i64, i8, %"class.cvc5::internal::theory::arith::linear::Constraint::AssertionOrderCleanup", [6 x i8] }>
%"class.cvc5::internal::theory::arith::linear::Constraint::AssertionOrderCleanup" = type { i8 }
%"class.cvc5::context::CDList.45" = type <{ %"class.cvc5::context::ContextObj", %"class.std::vector.6", i64, i8, %"class.cvc5::internal::theory::arith::linear::Constraint::SplitCleanup", [6 x i8] }>
%"class.cvc5::internal::theory::arith::linear::Constraint::SplitCleanup" = type { i8 }

; Function Attrs: mustprogress nounwind uwtable
define linkonce_odr hidden noundef nonnull align 8 dereferenceable(32) ptr @_ZNKSt6vectorIN4cvc58internal6theory5arith6linear14ConstraintRuleESaIS5_EEixEm(ptr noundef nonnull align 8 dereferenceable(24) %this, i64 noundef %__n) #4 comdat align 2 {
entry:
  %this.addr = alloca ptr, align 8
  %__n.addr = alloca i64, align 8
  store ptr %this, ptr %this.addr, align 8
  store i64 %__n, ptr %__n.addr, align 8
  %this1 = load ptr, ptr %this.addr, align 8
  %_M_impl = getelementptr inbounds %"struct.std::_Vector_base.36", ptr %this1, i32 0, i32 0
  %_M_start = getelementptr inbounds %"struct.std::_Vector_base<cvc5::internal::theory::arith::linear::ConstraintRule, std::allocator<cvc5::internal::theory::arith::linear::ConstraintRule>>::_Vector_impl_data", ptr %_M_impl, i32 0, i32 0
  %0 = load ptr, ptr %_M_start, align 8
  %1 = load i64, ptr %__n.addr, align 8
  %add.ptr = getelementptr inbounds %"struct.cvc5::internal::theory::arith::linear::ConstraintRule", ptr %0, i64 %1
  ret ptr %add.ptr
}

; Function Attrs: mustprogress nounwind uwtable
define linkonce_odr hidden noundef nonnull align 8 dereferenceable(32) ptr @_ZNK4cvc57context6CDListINS_8internal6theory5arith6linear14ConstraintRuleENS5_10Constraint21ConstraintRuleCleanupESaIS6_EEixEm(ptr noundef nonnull align 8 dereferenceable(74) %this, i64 noundef %i) #4 comdat align 2 {
entry:
  %this.addr = alloca ptr, align 8
  %i.addr = alloca i64, align 8
  store ptr %this, ptr %this.addr, align 8
  store i64 %i, ptr %i.addr, align 8
  %this1 = load ptr, ptr %this.addr, align 8
  %d_list = getelementptr inbounds %"class.cvc5::context::CDList.34", ptr %this1, i32 0, i32 1
  %0 = load i64, ptr %i.addr, align 8
  %call = call noundef nonnull align 8 dereferenceable(32) ptr @_ZNKSt6vectorIN4cvc58internal6theory5arith6linear14ConstraintRuleESaIS5_EEixEm(ptr noundef nonnull align 8 dereferenceable(24) %d_list, i64 noundef %0) #3
  ret ptr %call
}

; Function Attrs: mustprogress nounwind uwtable
define linkonce_odr hidden noundef nonnull align 8 dereferenceable(8) ptr @_ZNKSt6vectorIPKN4cvc58internal6theory5arith6linear10ConstraintESaIS7_EEixEm(ptr noundef nonnull align 8 dereferenceable(24) %this, i64 noundef %__n) #4 comdat align 2 {
entry:
  %this.addr = alloca ptr, align 8
  %__n.addr = alloca i64, align 8
  store ptr %this, ptr %this.addr, align 8
  store i64 %__n, ptr %__n.addr, align 8
  %this1 = load ptr, ptr %this.addr, align 8
  %_M_impl = getelementptr inbounds %"struct.std::_Vector_base", ptr %this1, i32 0, i32 0
  %_M_start = getelementptr inbounds %"struct.std::_Vector_base<const cvc5::internal::theory::arith::linear::Constraint *, std::allocator<const cvc5::internal::theory::arith::linear::Constraint *>>::_Vector_impl_data", ptr %_M_impl, i32 0, i32 0
  %0 = load ptr, ptr %_M_start, align 8
  %1 = load i64, ptr %__n.addr, align 8
  %add.ptr = getelementptr inbounds ptr, ptr %0, i64 %1
  ret ptr %add.ptr
}

; Function Attrs: mustprogress uwtable
define hidden noundef nonnull align 8 dereferenceable(32) ptr @_ZNK4cvc58internal6theory5arith6linear10Constraint17getConstraintRuleEv(ptr noundef nonnull align 8 dereferenceable(145) %this) #5 align 2 {
entry:
  %this.addr = alloca ptr, align 8
  store ptr %this, ptr %this.addr, align 8
  %this1 = load ptr, ptr %this.addr, align 8
  %d_database = getelementptr inbounds %"class.cvc5::internal::theory::arith::linear::Constraint", ptr %this1, i32 0, i32 3
  %0 = load ptr, ptr %d_database, align 8
  %d_watches = getelementptr inbounds %"class.cvc5::internal::theory::arith::linear::ConstraintDatabase", ptr %0, i32 0, i32 5
  %1 = load ptr, ptr %d_watches, align 8
  %d_constraintProofs = getelementptr inbounds %"struct.cvc5::internal::theory::arith::linear::ConstraintDatabase::Watches", ptr %1, i32 0, i32 0
  %d_crid = getelementptr inbounds %"class.cvc5::internal::theory::arith::linear::Constraint", ptr %this1, i32 0, i32 10
  %2 = load i64, ptr %d_crid, align 8
  %call = call noundef nonnull align 8 dereferenceable(32) ptr @_ZNK4cvc57context6CDListINS_8internal6theory5arith6linear14ConstraintRuleENS5_10Constraint21ConstraintRuleCleanupESaIS6_EEixEm(ptr noundef nonnull align 8 dereferenceable(74) %d_constraintProofs, i64 noundef %2)
  ret ptr %call
}

; Function Attrs: mustprogress nounwind uwtable
define linkonce_odr hidden noundef nonnull align 8 dereferenceable(8) ptr @_ZNK4cvc57context6CDListIPKNS_8internal6theory5arith6linear10ConstraintENS0_14DefaultCleanUpIS8_EESaIS8_EEixEm(ptr noundef nonnull align 8 dereferenceable(74) %this, i64 noundef %i) #4 comdat align 2 {
entry:
  %this.addr = alloca ptr, align 8
  %i.addr = alloca i64, align 8
  store ptr %this, ptr %this.addr, align 8
  store i64 %i, ptr %i.addr, align 8
  %this1 = load ptr, ptr %this.addr, align 8
  %d_list = getelementptr inbounds %"class.cvc5::context::CDList", ptr %this1, i32 0, i32 1
  %0 = load i64, ptr %i.addr, align 8
  %call = call noundef nonnull align 8 dereferenceable(8) ptr @_ZNKSt6vectorIPKN4cvc58internal6theory5arith6linear10ConstraintESaIS7_EEixEm(ptr noundef nonnull align 8 dereferenceable(24) %d_list, i64 noundef %0) #3
  ret ptr %call
}

; Function Attrs: mustprogress uwtable
define linkonce_odr hidden noundef i64 @_ZNK4cvc58internal6theory5arith6linear10Constraint16getEndAntecedentEv(ptr noundef nonnull align 8 dereferenceable(145) %this) #5 comdat align 2 {
entry:
  %this.addr = alloca ptr, align 8
  store ptr %this, ptr %this.addr, align 8
  %this1 = load ptr, ptr %this.addr, align 8
  %call = call noundef nonnull align 8 dereferenceable(32) ptr @_ZNK4cvc58internal6theory5arith6linear10Constraint17getConstraintRuleEv(ptr noundef nonnull align 8 dereferenceable(145) %this1)
  %d_antecedentEnd = getelementptr inbounds %"struct.cvc5::internal::theory::arith::linear::ConstraintRule", ptr %call, i32 0, i32 2
  %0 = load i64, ptr %d_antecedentEnd, align 8
  ret i64 %0
}

; Function Attrs: mustprogress uwtable
define hidden noundef zeroext i1 @_ZNK4cvc58internal6theory5arith6linear10Constraint19antecentListIsEmptyEv(ptr noundef nonnull align 8 dereferenceable(145) %this) #5 align 2 {
entry:
  %this.addr = alloca ptr, align 8
  store ptr %this, ptr %this.addr, align 8
  %this1 = load ptr, ptr %this.addr, align 8
  %d_database = getelementptr inbounds %"class.cvc5::internal::theory::arith::linear::Constraint", ptr %this1, i32 0, i32 3
  %0 = load ptr, ptr %d_database, align 8
  %d_antecedents = getelementptr inbounds %"class.cvc5::internal::theory::arith::linear::ConstraintDatabase", ptr %0, i32 0, i32 4
  %call = call noundef i64 @_ZNK4cvc58internal6theory5arith6linear10Constraint16getEndAntecedentEv(ptr noundef nonnull align 8 dereferenceable(145) %this1)
  %call2 = call noundef nonnull align 8 dereferenceable(8) ptr @_ZNK4cvc57context6CDListIPKNS_8internal6theory5arith6linear10ConstraintENS0_14DefaultCleanUpIS8_EESaIS8_EEixEm(ptr noundef nonnull align 8 dereferenceable(74) %d_antecedents, i64 noundef %call)
  %1 = load ptr, ptr %call2, align 8
  %cmp = icmp eq ptr %1, null
  ret i1 %cmp
}